target datalayout = "e-m:e-p270:32:32-p271:32:32-p272:64:64-i64:64-i128:128-f80:128-n8:16:32:64-S128"
target triple = "x86_64-pc-linux-gnu"

%struct.EventFilterPrivate_HandlerNode_ = type { %struct.EventHandlerRestricted_HandlerNode_, %struct.EventFilters_ }
%struct.EventHandlerRestricted_HandlerNode_ = type { %struct.HandlerNode_, %struct.EventHandlerPrivate_Data_ }
%struct.HandlerNode_ = type { i32, i32, i8, i8, i32 }
%struct.EventHandlerPrivate_Data_ = type { ptr, ptr, ptr, ptr }
%struct.EventFilters_ = type { i32, [10000 x %struct.Filter_] }
%struct.Filter_ = type { i8, %union.anon }
%union.anon = type { %struct.LocationFilter }
%struct.LocationFilter = type { ptr, ptr, i64 }
%struct.InstanceFilter = type { ptr }

; Function Attrs: nounwind uwtable
define hidden i32 @eventFilter_setInstanceOnlyFilter(ptr noundef %0, i32 noundef %1, ptr noundef %2) #0 {
  %4 = alloca i32, align 4
  %5 = alloca ptr, align 8
  %6 = alloca i32, align 4
  %7 = alloca ptr, align 8
  %8 = alloca ptr, align 8
  %9 = alloca ptr, align 8
  store ptr %0, ptr %5, align 8
  store i32 %1, ptr %6, align 4
  store ptr %2, ptr %7, align 8
  %10 = call ptr @getEnv()
  store ptr %10, ptr %8, align 8
  %11 = load ptr, ptr %5, align 8
  %12 = getelementptr inbounds %struct.EventFilterPrivate_HandlerNode_, ptr %11, i32 0, i32 1
  %13 = getelementptr inbounds %struct.EventFilters_, ptr %12, i32 0, i32 1
  %14 = load i32, ptr %6, align 4
  %15 = sext i32 %14 to i64
  %16 = getelementptr inbounds [10000 x %struct.Filter_], ptr %13, i64 0, i64 %15
  %17 = getelementptr inbounds %struct.Filter_, ptr %16, i32 0, i32 1
  store ptr %17, ptr %9, align 8
  %18 = load i32, ptr %6, align 4
  %19 = load ptr, ptr %5, align 8
  %20 = getelementptr inbounds %struct.EventFilterPrivate_HandlerNode_, ptr %19, i32 0, i32 1
  %21 = getelementptr inbounds %struct.EventFilters_, ptr %20, i32 0, i32 0
  %22 = load i32, ptr %21, align 8
  %23 = icmp sge i32 %18, %22
  br i1 %23, label %24, label %25

24:                                               ; preds = %3
  store i32 202, ptr %4, align 4
  br label %43

25:                                               ; preds = %3
  %26 = load ptr, ptr %9, align 8
  %27 = getelementptr inbounds %struct.InstanceFilter, ptr %26, i32 0, i32 0
  store ptr null, ptr %27, align 8
  %28 = load ptr, ptr %7, align 8
  %29 = icmp ne ptr %28, null
  br i1 %29, label %30, label %35

30:                                               ; preds = %25
  %31 = load ptr, ptr %8, align 8
  %32 = load ptr, ptr %7, align 8
  %33 = load ptr, ptr %9, align 8
  %34 = getelementptr inbounds %struct.InstanceFilter, ptr %33, i32 0, i32 0
  call void @saveGlobalRef(ptr noundef %31, ptr noundef %32, ptr noundef %34)
  br label %35

35:                                               ; preds = %30, %25
  %36 = load ptr, ptr %5, align 8
  %37 = getelementptr inbounds %struct.EventFilterPrivate_HandlerNode_, ptr %36, i32 0, i32 1
  %38 = getelementptr inbounds %struct.EventFilters_, ptr %37, i32 0, i32 1
  %39 = load i32, ptr %6, align 4
  %40 = sext i32 %39 to i64
  %41 = getelementptr inbounds [10000 x %struct.Filter_], ptr %38, i64 0, i64 %40
  %42 = getelementptr inbounds %struct.Filter_, ptr %41, i32 0, i32 0
  store i8 11, ptr %42, align 8
  store i32 0, ptr %4, align 4
  br label %43

43:                                               ; preds = %35, %24
  %44 = load i32, ptr %4, align 4
  ret i32 %44
}