; Function Attrs: nounwind uwtable
define hidden range(i32 0, 203) i32 @eventFilter_setInstanceOnlyFilter(ptr noundef %0, i32 noundef %1, ptr noundef %2) local_unnamed_addr #0 {
  %4 = tail call ptr @getEnv() #6
  %5 = getelementptr inbounds i8, ptr %0, i64 48
  %6 = getelementptr inbounds i8, ptr %0, i64 56
  %7 = sext i32 %1 to i64
  %8 = getelementptr inbounds [10000 x %struct.Filter_], ptr %6, i64 0, i64 %7
  %9 = getelementptr inbounds i8, ptr %8, i64 8
  %10 = load i32, ptr %5, align 8
  %.not = icmp sgt i32 %10, %1
  br i1 %.not, label %11, label %14

11:                                               ; preds = %3
  store ptr null, ptr %9, align 8
  %.not12 = icmp eq ptr %2, null
  br i1 %.not12, label %13, label %12

12:                                               ; preds = %11
  tail call void @saveGlobalRef(ptr noundef %4, ptr noundef nonnull %2, ptr noundef nonnull %9) #6
  br label %13

13:                                               ; preds = %12, %11
  store i8 11, ptr %8, align 8
  br label %14

14:                                               ; preds = %3, %13
  %.0 = phi i32 [ 0, %13 ], [ 202, %3 ]
  ret i32 %.0
}